target datalayout = "e-m:e-p270:32:32-p271:32:32-p272:64:64-i64:64-i128:128-f80:128-n8:16:32:64-S128"
target triple = "x86_64-pc-linux-gnu"

%struct.strbuf = type { i64, i64, ptr }
%struct.helper_data = type { ptr, ptr, ptr, i16, ptr, ptr, %struct.refspec, %struct.git_transport_options }
%struct.refspec = type { ptr, i32, i32, i32 }
%struct.git_transport_options = type { i16, i32, ptr, ptr, ptr, ptr, ptr, %struct.list_objects_filter_options, ptr, ptr }
%struct.list_objects_filter_options = type { %struct.strbuf, i32, i8, ptr, i64, i64, i32, i64, i64, ptr }
%struct.transport = type { ptr, ptr, ptr, ptr, ptr, i8, ptr, i8, ptr, ptr, %struct.string_list, i8, ptr, i32, ptr }
%struct.string_list = type { ptr, i64, i64, i8, ptr }
%struct.child_process = type { %struct.strvec, %struct.strvec, i32, i32, i64, ptr, ptr, i32, i32, i32, ptr, i16, ptr }
%struct.strvec = type { ptr, i64, i64 }

@.str.153 = private unnamed_addr constant [31 x i8] c"can't connect to subservice %s\00", align 1

; Function Attrs: nounwind uwtable
define internal void @do_take_over(ptr noundef %0) #0 {
  %2 = alloca ptr, align 8
  %3 = alloca ptr, align 8
  store ptr %0, ptr %2, align 8, !tbaa !4
  call void @llvm.lifetime.start.p0(i64 8, ptr %3) #12
  %4 = load ptr, ptr %2, align 8, !tbaa !4
  %5 = getelementptr inbounds nuw %struct.transport, ptr %4, i32 0, i32 3
  %6 = load ptr, ptr %5, align 8, !tbaa !30
  store ptr %6, ptr %3, align 8, !tbaa !11
  %7 = load ptr, ptr %2, align 8, !tbaa !4
  %8 = load ptr, ptr %3, align 8, !tbaa !11
  %9 = getelementptr inbounds nuw %struct.helper_data, ptr %8, i32 0, i32 1
  %10 = load ptr, ptr %9, align 8, !tbaa !84
  call void @transport_take_over(ptr noundef %7, ptr noundef %10)
  %11 = load ptr, ptr %3, align 8, !tbaa !11
  %12 = getelementptr inbounds nuw %struct.helper_data, ptr %11, i32 0, i32 2
  %13 = load ptr, ptr %12, align 8, !tbaa !104
  %14 = call i32 @fclose(ptr noundef %13)
  %15 = load ptr, ptr %3, align 8, !tbaa !11
  %16 = getelementptr inbounds nuw %struct.helper_data, ptr %15, i32 0, i32 0
  %17 = load ptr, ptr %16, align 8, !tbaa !13
  call void @free(ptr noundef %17) #12
  %18 = load ptr, ptr %3, align 8, !tbaa !11
  call void @free(ptr noundef %18) #12
  call void @llvm.lifetime.end.p0(i64 8, ptr %3) #12
  ret void
}

; Function Attrs: nounwind uwtable
define internal i32 @connect_helper(ptr noundef %0, ptr noundef %1, ptr noundef %2, ptr noundef %3) #0 {
  %5 = alloca ptr, align 8
  %6 = alloca ptr, align 8
  %7 = alloca ptr, align 8
  %8 = alloca ptr, align 8
  %9 = alloca ptr, align 8
  store ptr %0, ptr %5, align 8, !tbaa !4
  store ptr %1, ptr %6, align 8, !tbaa !9
  store ptr %2, ptr %7, align 8, !tbaa !9
  store ptr %3, ptr %8, align 8, !tbaa !82
  call void @llvm.lifetime.start.p0(i64 8, ptr %9) #12
  %10 = load ptr, ptr %5, align 8, !tbaa !4
  %11 = getelementptr inbounds nuw %struct.transport, ptr %10, i32 0, i32 3
  %12 = load ptr, ptr %11, align 8, !tbaa !30
  store ptr %12, ptr %9, align 8, !tbaa !11
  %13 = load ptr, ptr %5, align 8, !tbaa !4
  %14 = call ptr @get_helper(ptr noundef %13)
  %15 = load ptr, ptr %5, align 8, !tbaa !4
  %16 = load ptr, ptr %6, align 8, !tbaa !9
  %17 = load ptr, ptr %7, align 8, !tbaa !9
  %18 = call i32 @process_connect_service(ptr noundef %15, ptr noundef %16, ptr noundef %17)
  %19 = icmp ne i32 %18, 0
  br i1 %19, label %23, label %20

20:                                               ; preds = %4
  %21 = call ptr @_(ptr noundef @.str.153)
  %22 = load ptr, ptr %6, align 8, !tbaa !9
  call void (ptr, ...) @die(ptr noundef %21, ptr noundef %22) #13
  unreachable

23:                                               ; preds = %4
  %24 = load ptr, ptr %9, align 8, !tbaa !11
  %25 = getelementptr inbounds nuw %struct.helper_data, ptr %24, i32 0, i32 1
  %26 = load ptr, ptr %25, align 8, !tbaa !84
  %27 = getelementptr inbounds nuw %struct.child_process, ptr %26, i32 0, i32 8
  %28 = load i32, ptr %27, align 4, !tbaa !85
  %29 = load ptr, ptr %8, align 8, !tbaa !82
  %30 = getelementptr inbounds i32, ptr %29, i64 0
  store i32 %28, ptr %30, align 4, !tbaa !29
  %31 = load ptr, ptr %9, align 8, !tbaa !11
  %32 = getelementptr inbounds nuw %struct.helper_data, ptr %31, i32 0, i32 1
  %33 = load ptr, ptr %32, align 8, !tbaa !84
  %34 = getelementptr inbounds nuw %struct.child_process, ptr %33, i32 0, i32 7
  %35 = load i32, ptr %34, align 8, !tbaa !89
  %36 = load ptr, ptr %8, align 8, !tbaa !82
  %37 = getelementptr inbounds i32, ptr %36, i64 1
  store i32 %35, ptr %37, align 4, !tbaa !29
  %38 = load ptr, ptr %5, align 8, !tbaa !4
  call void @do_take_over(ptr noundef %38)
  call void @llvm.lifetime.end.p0(i64 8, ptr %9) #12
  ret i32 0
}