; Function Attrs: nounwind uwtable
define internal noundef i32 @connect_helper(ptr noundef %0, ptr noundef %1, ptr noundef %2, ptr noundef writeonly captures(none) %3) #0 {
  %5 = getelementptr inbounds nuw i8, ptr %0, i64 24
  %6 = load ptr, ptr %5, align 8, !tbaa !24
  %7 = tail call fastcc ptr @get_helper(ptr noundef %0)
  %8 = tail call fastcc i32 @process_connect_service(ptr noundef %0, ptr noundef %1, ptr noundef %2)
  %.not = icmp eq i32 %8, 0
  br i1 %.not, label %9, label %11

9:                                                ; preds = %4
  %10 = tail call fastcc ptr @_(ptr noundef nonnull @.str.153)
  tail call void (ptr, ...) @die(ptr noundef %10, ptr noundef %1) #20
  unreachable

11:                                               ; preds = %4
  %12 = getelementptr inbounds nuw i8, ptr %6, i64 8
  %13 = load ptr, ptr %12, align 8, !tbaa !71
  %14 = getelementptr inbounds nuw i8, ptr %13, i64 84
  %15 = load i32, ptr %14, align 4, !tbaa !91
  store i32 %15, ptr %3, align 4, !tbaa !55
  %16 = getelementptr inbounds nuw i8, ptr %13, i64 80
  %17 = load i32, ptr %16, align 8, !tbaa !83
  %18 = getelementptr inbounds nuw i8, ptr %3, i64 4
  store i32 %17, ptr %18, align 4, !tbaa !55
  %19 = load ptr, ptr %5, align 8, !tbaa !24
  %20 = getelementptr inbounds nuw i8, ptr %19, i64 8
  %21 = load ptr, ptr %20, align 8, !tbaa !71
  tail call void @transport_take_over(ptr noundef nonnull %0, ptr noundef %21) #19
  %22 = getelementptr inbounds nuw i8, ptr %19, i64 16
  %23 = load ptr, ptr %22, align 8, !tbaa !72
  %24 = tail call i32 @fclose(ptr noundef %23)
  %25 = load ptr, ptr %19, align 8, !tbaa !4
  tail call void @free(ptr noundef %25) #19
  tail call void @free(ptr noundef %19) #19
  ret i32 0
}